target datalayout = "e-m:e-p270:32:32-p271:32:32-p272:64:64-i64:64-i128:128-f80:128-n8:16:32:64-S128"
target triple = "x86_64-pc-linux-gnu"

; Function Attrs: alwaysinline nounwind willreturn memory(none) uwtable
define internal zeroext i8 @av_clip_uint8_c(i32 noundef %0) #4 {
  %2 = alloca i8, align 1
  %3 = alloca i32, align 4
  store i32 %0, ptr %3, align 4, !tbaa !13
  %4 = load i32, ptr %3, align 4, !tbaa !13
  %5 = and i32 %4, -256
  %6 = icmp ne i32 %5, 0
  br i1 %6, label %7, label %12

7:                                                ; preds = %1
  %8 = load i32, ptr %3, align 4, !tbaa !13
  %9 = xor i32 %8, -1
  %10 = ashr i32 %9, 31
  %11 = trunc i32 %10 to i8
  store i8 %11, ptr %2, align 1
  br label %15

12:                                               ; preds = %1
  %13 = load i32, ptr %3, align 4, !tbaa !13
  %14 = trunc i32 %13 to i8
  store i8 %14, ptr %2, align 1
  br label %15

15:                                               ; preds = %12, %7
  %16 = load i8, ptr %2, align 1
  ret i8 %16
}

; Function Attrs: nounwind uwtable
define internal void @put_signed_rect_clamped_8bit_c(ptr noundef %0, i32 noundef %1, ptr noundef %2, i32 noundef %3, i32 noundef %4, i32 noundef %5) #1 {
  %7 = alloca ptr, align 8
  %8 = alloca i32, align 4
  %9 = alloca ptr, align 8
  %10 = alloca i32, align 4
  %11 = alloca i32, align 4
  %12 = alloca i32, align 4
  %13 = alloca i32, align 4
  %14 = alloca i32, align 4
  %15 = alloca ptr, align 8
  store ptr %0, ptr %7, align 8, !tbaa !11
  store i32 %1, ptr %8, align 4, !tbaa !13
  store ptr %2, ptr %9, align 8, !tbaa !11
  store i32 %3, ptr %10, align 4, !tbaa !13
  store i32 %4, ptr %11, align 4, !tbaa !13
  store i32 %5, ptr %12, align 4, !tbaa !13
  call void @llvm.lifetime.start.p0(i64 4, ptr %13) #5
  call void @llvm.lifetime.start.p0(i64 4, ptr %14) #5
  call void @llvm.lifetime.start.p0(i64 8, ptr %15) #5
  %16 = load ptr, ptr %9, align 8, !tbaa !11
  store ptr %16, ptr %15, align 8, !tbaa !21
  store i32 0, ptr %14, align 4, !tbaa !13
  br label %17

17:                                               ; preds = %94, %6
  %18 = load i32, ptr %14, align 4, !tbaa !13
  %19 = load i32, ptr %12, align 4, !tbaa !13
  %20 = icmp slt i32 %18, %19
  br i1 %20, label %21, label %97

21:                                               ; preds = %17
  store i32 0, ptr %13, align 4, !tbaa !13
  br label %22

22:                                               ; preds = %81, %21
  %23 = load i32, ptr %13, align 4, !tbaa !13
  %24 = load i32, ptr %11, align 4, !tbaa !13
  %25 = icmp slt i32 %23, %24
  br i1 %25, label %26, label %84

26:                                               ; preds = %22
  %27 = load ptr, ptr %15, align 8, !tbaa !21
  %28 = load i32, ptr %13, align 4, !tbaa !13
  %29 = sext i32 %28 to i64
  %30 = getelementptr inbounds i16, ptr %27, i64 %29
  %31 = load i16, ptr %30, align 2, !tbaa !23
  %32 = sext i16 %31 to i32
  %33 = add nsw i32 %32, 128
  %34 = call zeroext i8 @av_clip_uint8_c(i32 noundef %33) #6
  %35 = load ptr, ptr %7, align 8, !tbaa !11
  %36 = load i32, ptr %13, align 4, !tbaa !13
  %37 = sext i32 %36 to i64
  %38 = getelementptr inbounds i8, ptr %35, i64 %37
  store i8 %34, ptr %38, align 1, !tbaa !15
  %39 = load ptr, ptr %15, align 8, !tbaa !21
  %40 = load i32, ptr %13, align 4, !tbaa !13
  %41 = add nsw i32 %40, 1
  %42 = sext i32 %41 to i64
  %43 = getelementptr inbounds i16, ptr %39, i64 %42
  %44 = load i16, ptr %43, align 2, !tbaa !23
  %45 = sext i16 %44 to i32
  %46 = add nsw i32 %45, 128
  %47 = call zeroext i8 @av_clip_uint8_c(i32 noundef %46) #6
  %48 = load ptr, ptr %7, align 8, !tbaa !11
  %49 = load i32, ptr %13, align 4, !tbaa !13
  %50 = add nsw i32 %49, 1
  %51 = sext i32 %50 to i64
  %52 = getelementptr inbounds i8, ptr %48, i64 %51
  store i8 %47, ptr %52, align 1, !tbaa !15
  %53 = load ptr, ptr %15, align 8, !tbaa !21
  %54 = load i32, ptr %13, align 4, !tbaa !13
  %55 = add nsw i32 %54, 2
  %56 = sext i32 %55 to i64
  %57 = getelementptr inbounds i16, ptr %53, i64 %56
  %58 = load i16, ptr %57, align 2, !tbaa !23
  %59 = sext i16 %58 to i32
  %60 = add nsw i32 %59, 128
  %61 = call zeroext i8 @av_clip_uint8_c(i32 noundef %60) #6
  %62 = load ptr, ptr %7, align 8, !tbaa !11
  %63 = load i32, ptr %13, align 4, !tbaa !13
  %64 = add nsw i32 %63, 2
  %65 = sext i32 %64 to i64
  %66 = getelementptr inbounds i8, ptr %62, i64 %65
  store i8 %61, ptr %66, align 1, !tbaa !15
  %67 = load ptr, ptr %15, align 8, !tbaa !21
  %68 = load i32, ptr %13, align 4, !tbaa !13
  %69 = add nsw i32 %68, 3
  %70 = sext i32 %69 to i64
  %71 = getelementptr inbounds i16, ptr %67, i64 %70
  %72 = load i16, ptr %71, align 2, !tbaa !23
  %73 = sext i16 %72 to i32
  %74 = add nsw i32 %73, 128
  %75 = call zeroext i8 @av_clip_uint8_c(i32 noundef %74) #6
  %76 = load ptr, ptr %7, align 8, !tbaa !11
  %77 = load i32, ptr %13, align 4, !tbaa !13
  %78 = add nsw i32 %77, 3
  %79 = sext i32 %78 to i64
  %80 = getelementptr inbounds i8, ptr %76, i64 %79
  store i8 %75, ptr %80, align 1, !tbaa !15
  br label %81

81:                                               ; preds = %26
  %82 = load i32, ptr %13, align 4, !tbaa !13
  %83 = add nsw i32 %82, 4
  store i32 %83, ptr %13, align 4, !tbaa !13
  br label %22, !llvm.loop !27

84:                                               ; preds = %22
  %85 = load i32, ptr %8, align 4, !tbaa !13
  %86 = load ptr, ptr %7, align 8, !tbaa !11
  %87 = sext i32 %85 to i64
  %88 = getelementptr inbounds i8, ptr %86, i64 %87
  store ptr %88, ptr %7, align 8, !tbaa !11
  %89 = load i32, ptr %10, align 4, !tbaa !13
  %90 = ashr i32 %89, 1
  %91 = load ptr, ptr %15, align 8, !tbaa !21
  %92 = sext i32 %90 to i64
  %93 = getelementptr inbounds i16, ptr %91, i64 %92
  store ptr %93, ptr %15, align 8, !tbaa !21
  br label %94

94:                                               ; preds = %84
  %95 = load i32, ptr %14, align 4, !tbaa !13
  %96 = add nsw i32 %95, 1
  store i32 %96, ptr %14, align 4, !tbaa !13
  br label %17, !llvm.loop !28

97:                                               ; preds = %17
  call void @llvm.lifetime.end.p0(i64 8, ptr %15) #5
  call void @llvm.lifetime.end.p0(i64 4, ptr %14) #5
  call void @llvm.lifetime.end.p0(i64 4, ptr %13) #5
  ret void
}