; Function Attrs: nofree norecurse nosync nounwind memory(argmem: readwrite) uwtable
define internal void @put_signed_rect_clamped_8bit_c(ptr noundef writeonly captures(none) %0, i32 noundef %1, ptr noundef readonly captures(none) %2, i32 noundef %3, i32 noundef %4, i32 noundef %5) #1 {
  %7 = icmp sgt i32 %5, 0
  br i1 %7, label %.preheader.lr.ph, label %._crit_edge42

.preheader.lr.ph:                                 ; preds = %6
  %8 = icmp sgt i32 %4, 0
  %9 = sext i32 %1 to i64
  %10 = ashr i32 %3, 1
  %11 = sext i32 %10 to i64
  br i1 %8, label %.preheader.us.preheader, label %._crit_edge42

.preheader.us.preheader:                          ; preds = %.preheader.lr.ph
  %12 = zext nneg i32 %4 to i64
  br label %.preheader.us

.preheader.us:                                    ; preds = %.preheader.us.preheader, %._crit_edge.us
  %.041.us = phi ptr [ %47, %._crit_edge.us ], [ %2, %.preheader.us.preheader ]
  %.02640.us = phi i32 [ %48, %._crit_edge.us ], [ 0, %.preheader.us.preheader ]
  %.02839.us = phi ptr [ %46, %._crit_edge.us ], [ %0, %.preheader.us.preheader ]
  br label %13

13:                                               ; preds = %.preheader.us, %13
  %indvars.iv = phi i64 [ 0, %.preheader.us ], [ %indvars.iv.next, %13 ]
  %14 = getelementptr inbounds nuw i16, ptr %.041.us, i64 %indvars.iv
  %15 = load i16, ptr %14, align 2, !tbaa !17
  %16 = sext i16 %15 to i32
  %17 = add nsw i32 %16, 128
  %.not.i.us = icmp ult i32 %17, 256
  %isnotneg.i.us = icmp sgt i16 %15, -129
  %18 = sext i1 %isnotneg.i.us to i8
  %19 = trunc nuw i32 %17 to i8
  %.0.i.us = select i1 %.not.i.us, i8 %19, i8 %18
  %20 = getelementptr inbounds nuw i8, ptr %.02839.us, i64 %indvars.iv
  store i8 %.0.i.us, ptr %20, align 1, !tbaa !11
  %21 = or disjoint i64 %indvars.iv, 1
  %22 = getelementptr inbounds nuw i16, ptr %.041.us, i64 %21
  %23 = load i16, ptr %22, align 2, !tbaa !17
  %24 = sext i16 %23 to i32
  %25 = add nsw i32 %24, 128
  %.not.i29.us = icmp ult i32 %25, 256
  %isnotneg.i30.us = icmp sgt i16 %23, -129
  %26 = sext i1 %isnotneg.i30.us to i8
  %27 = trunc nuw i32 %25 to i8
  %.0.i31.us = select i1 %.not.i29.us, i8 %27, i8 %26
  %28 = getelementptr inbounds nuw i8, ptr %.02839.us, i64 %21
  store i8 %.0.i31.us, ptr %28, align 1, !tbaa !11
  %29 = or disjoint i64 %indvars.iv, 2
  %30 = getelementptr inbounds nuw i16, ptr %.041.us, i64 %29
  %31 = load i16, ptr %30, align 2, !tbaa !17
  %32 = sext i16 %31 to i32
  %33 = add nsw i32 %32, 128
  %.not.i32.us = icmp ult i32 %33, 256
  %isnotneg.i33.us = icmp sgt i16 %31, -129
  %34 = sext i1 %isnotneg.i33.us to i8
  %35 = trunc nuw i32 %33 to i8
  %.0.i34.us = select i1 %.not.i32.us, i8 %35, i8 %34
  %36 = getelementptr inbounds nuw i8, ptr %.02839.us, i64 %29
  store i8 %.0.i34.us, ptr %36, align 1, !tbaa !11
  %37 = or disjoint i64 %indvars.iv, 3
  %38 = getelementptr inbounds nuw i16, ptr %.041.us, i64 %37
  %39 = load i16, ptr %38, align 2, !tbaa !17
  %40 = sext i16 %39 to i32
  %41 = add nsw i32 %40, 128
  %.not.i35.us = icmp ult i32 %41, 256
  %isnotneg.i36.us = icmp sgt i16 %39, -129
  %42 = sext i1 %isnotneg.i36.us to i8
  %43 = trunc nuw i32 %41 to i8
  %.0.i37.us = select i1 %.not.i35.us, i8 %43, i8 %42
  %44 = getelementptr inbounds nuw i8, ptr %.02839.us, i64 %37
  store i8 %.0.i37.us, ptr %44, align 1, !tbaa !11
  %indvars.iv.next = add nuw nsw i64 %indvars.iv, 4
  %45 = icmp samesign ult i64 %indvars.iv.next, %12
  br i1 %45, label %13, label %._crit_edge.us, !llvm.loop !21

._crit_edge.us:                                   ; preds = %13
  %46 = getelementptr inbounds i8, ptr %.02839.us, i64 %9
  %47 = getelementptr inbounds i16, ptr %.041.us, i64 %11
  %48 = add nuw nsw i32 %.02640.us, 1
  %exitcond.not = icmp eq i32 %48, %5
  br i1 %exitcond.not, label %._crit_edge42, label %.preheader.us, !llvm.loop !22

._crit_edge42:                                    ; preds = %._crit_edge.us, %.preheader.lr.ph, %6
  ret void
}